target datalayout = "e-m:e-p270:32:32-p271:32:32-p272:64:64-i64:64-i128:128-f80:128-n8:16:32:64-S128"
target triple = "x86_64-pc-linux-gnu"

%"class.icu_77::UnicodeString" = type { %"class.icu_77::Replaceable", %"union.icu_77::UnicodeString::StackBufferOrFields" }
%"class.icu_77::Replaceable" = type { %"class.icu_77::UObject" }
%"class.icu_77::UObject" = type { ptr }
%"union.icu_77::UnicodeString::StackBufferOrFields" = type { %struct.anon.0, [32 x i8] }
%struct.anon.0 = type { i16, i32, i32, ptr }
%"class.icu_77::CollationDataBuilder" = type { %"class.icu_77::UObject", ptr, ptr, ptr, ptr, %"class.icu_77::UVector32", %"class.icu_77::UVector64", %"class.icu_77::UVector", %"class.icu_77::UnicodeSet", %"class.icu_77::UnicodeString", i32, [4 x i8], %"class.icu_77::UnicodeSet", i8, i8, i8, ptr, ptr }
%"class.icu_77::UVector32" = type { %"class.icu_77::UObject", i32, i32, i32, ptr }
%"class.icu_77::UVector64" = type { %"class.icu_77::UObject", i32, i32, i32, ptr }
%"class.icu_77::UVector" = type { %"class.icu_77::UObject", i32, i32, ptr, ptr, ptr }
%"class.icu_77::UnicodeSet" = type <{ %"class.icu_77::UnicodeFilter", ptr, i32, i32, i8, [7 x i8], ptr, ptr, i32, [4 x i8], ptr, i32, [4 x i8], ptr, ptr, [25 x i32], [4 x i8] }>
%"class.icu_77::UnicodeFilter" = type { %"class.icu_77::UnicodeFunctor", %"class.icu_77::UnicodeMatcher" }
%"class.icu_77::UnicodeFunctor" = type { %"class.icu_77::UObject" }
%"class.icu_77::UnicodeMatcher" = type { ptr }

; Function Attrs: mustprogress nounwind uwtable
define linkonce_odr noundef i32 @_ZN6icu_779Collation19makeLongPrimaryCE32Ej(i32 noundef %0) #1 comdat align 2 {
  %2 = alloca i32, align 4
  store i32 %0, ptr %2, align 4, !tbaa !57
  %3 = load i32, ptr %2, align 4, !tbaa !57
  %4 = or i32 %3, 193
  ret i32 %4
}

; Function Attrs: inlinehint mustprogress uwtable
define linkonce_odr noundef signext i8 @_ZNK6icu_7720CollationDataBuilder21isCompressiblePrimaryEj(ptr noundef nonnull align 8 dereferenceable(640) %0, i32 noundef %1) #7 comdat align 2 {
  %3 = alloca ptr, align 8
  %4 = alloca i32, align 4
  store ptr %0, ptr %3, align 8, !tbaa !13
  store i32 %1, ptr %4, align 4, !tbaa !57
  %5 = load ptr, ptr %3, align 8
  %6 = load i32, ptr %4, align 4, !tbaa !57
  %7 = lshr i32 %6, 24
  %8 = load ptr, ptr %5, align 8, !tbaa !15
  %9 = getelementptr inbounds ptr, ptr %8, i64 3
  %10 = load ptr, ptr %9, align 8
  %11 = call noundef signext i8 %10(ptr noundef nonnull align 8 dereferenceable(640) %5, i32 noundef %7)
  ret i8 %11
}

; Function Attrs: inlinehint mustprogress nounwind uwtable
define internal noundef signext i8 @_ZL9U_FAILURE10UErrorCode(i32 noundef %0) #3 {
  %2 = alloca i32, align 4
  store i32 %0, ptr %2, align 4, !tbaa !97
  %3 = load i32, ptr %2, align 4, !tbaa !97
  %4 = icmp sgt i32 %3, 0
  %5 = zext i1 %4 to i8
  ret i8 %5
}

; Function Attrs: mustprogress uwtable
define noundef i32 @_ZN6icu_7720CollationDataBuilder28setPrimaryRangeAndReturnNextEiijiR10UErrorCode(ptr noundef nonnull align 8 dereferenceable(640) %0, i32 noundef %1, i32 noundef %2, i32 noundef %3, i32 noundef %4, ptr noundef nonnull align 4 dereferenceable(4) %5) #4 align 2 {
  %7 = alloca i32, align 4
  %8 = alloca ptr, align 8
  %9 = alloca i32, align 4
  %10 = alloca i32, align 4
  %11 = alloca i32, align 4
  %12 = alloca i32, align 4
  %13 = alloca ptr, align 8
  %14 = alloca i8, align 1
  %15 = alloca i32, align 4
  store ptr %0, ptr %8, align 8, !tbaa !13
  store i32 %1, ptr %9, align 4, !tbaa !57
  store i32 %2, ptr %10, align 4, !tbaa !57
  store i32 %3, ptr %11, align 4, !tbaa !57
  store i32 %4, ptr %12, align 4, !tbaa !57
  store ptr %5, ptr %13, align 8, !tbaa !8
  %16 = load ptr, ptr %8, align 8
  %17 = load ptr, ptr %13, align 8, !tbaa !8
  %18 = load i32, ptr %17, align 4, !tbaa !97
  %19 = call noundef signext i8 @_ZL9U_FAILURE10UErrorCode(i32 noundef %18)
  %20 = icmp ne i8 %19, 0
  br i1 %20, label %21, label %22

21:                                               ; preds = %6
  store i32 0, ptr %7, align 4
  br label %63

22:                                               ; preds = %6
  call void @llvm.lifetime.start.p0(i64 1, ptr %14) #11
  %23 = load i32, ptr %11, align 4, !tbaa !57
  %24 = call noundef signext i8 @_ZNK6icu_7720CollationDataBuilder21isCompressiblePrimaryEj(ptr noundef nonnull align 8 dereferenceable(640) %16, i32 noundef %23)
  store i8 %24, ptr %14, align 1, !tbaa !64
  %25 = load i32, ptr %9, align 4, !tbaa !57
  %26 = load i32, ptr %10, align 4, !tbaa !57
  %27 = load i32, ptr %11, align 4, !tbaa !57
  %28 = load i32, ptr %12, align 4, !tbaa !57
  %29 = load ptr, ptr %13, align 8, !tbaa !8
  %30 = call noundef signext i8 @_ZN6icu_7720CollationDataBuilder20maybeSetPrimaryRangeEiijiR10UErrorCode(ptr noundef nonnull align 8 dereferenceable(640) %16, i32 noundef %25, i32 noundef %26, i32 noundef %27, i32 noundef %28, ptr noundef nonnull align 4 dereferenceable(4) %29)
  %31 = icmp ne i8 %30, 0
  br i1 %31, label %32, label %42

32:                                               ; preds = %22
  %33 = load i32, ptr %11, align 4, !tbaa !57
  %34 = load i8, ptr %14, align 1, !tbaa !64
  %35 = load i32, ptr %10, align 4, !tbaa !57
  %36 = load i32, ptr %9, align 4, !tbaa !57
  %37 = sub nsw i32 %35, %36
  %38 = add nsw i32 %37, 1
  %39 = load i32, ptr %12, align 4, !tbaa !57
  %40 = mul nsw i32 %38, %39
  %41 = call noundef i32 @_ZN6icu_779Collation27incThreeBytePrimaryByOffsetEjai(i32 noundef %33, i8 noundef signext %34, i32 noundef %40)
  store i32 %41, ptr %7, align 4
  store i32 1, ptr %15, align 4
  br label %62

42:                                               ; preds = %22
  br label %43

43:                                               ; preds = %61, %42
  %44 = getelementptr inbounds nuw %"class.icu_77::CollationDataBuilder", ptr %16, i32 0, i32 4
  %45 = load ptr, ptr %44, align 8, !tbaa !99
  %46 = load i32, ptr %9, align 4, !tbaa !57
  %47 = load i32, ptr %11, align 4, !tbaa !57
  %48 = call noundef i32 @_ZN6icu_779Collation19makeLongPrimaryCE32Ej(i32 noundef %47)
  %49 = load ptr, ptr %13, align 8, !tbaa !8
  call void @utrie2_set32_77(ptr noundef %45, i32 noundef %46, i32 noundef %48, ptr noundef %49)
  %50 = load i32, ptr %9, align 4, !tbaa !57
  %51 = add nsw i32 %50, 1
  store i32 %51, ptr %9, align 4, !tbaa !57
  %52 = load i32, ptr %11, align 4, !tbaa !57
  %53 = load i8, ptr %14, align 1, !tbaa !64
  %54 = load i32, ptr %12, align 4, !tbaa !57
  %55 = call noundef i32 @_ZN6icu_779Collation27incThreeBytePrimaryByOffsetEjai(i32 noundef %52, i8 noundef signext %53, i32 noundef %54)
  store i32 %55, ptr %11, align 4, !tbaa !57
  %56 = load i32, ptr %9, align 4, !tbaa !57
  %57 = load i32, ptr %10, align 4, !tbaa !57
  %58 = icmp sgt i32 %56, %57
  br i1 %58, label %59, label %61

59:                                               ; preds = %43
  %60 = load i32, ptr %11, align 4, !tbaa !57
  store i32 %60, ptr %7, align 4
  store i32 1, ptr %15, align 4
  br label %62

61:                                               ; preds = %43
  br label %43, !llvm.loop !142

62:                                               ; preds = %59, %32
  call void @llvm.lifetime.end.p0(i64 1, ptr %14) #11
  br label %63

63:                                               ; preds = %62, %21
  %64 = load i32, ptr %7, align 4
  ret i32 %64
}