; Function Attrs: mustprogress uwtable
define noundef i32 @_ZN6icu_7720CollationDataBuilder28setPrimaryRangeAndReturnNextEiijiR10UErrorCode(ptr noundef nonnull align 8 dereferenceable(640) %0, i32 noundef %1, i32 noundef %2, i32 noundef %3, i32 noundef %4, ptr noundef nonnull align 4 dereferenceable(4) %5) local_unnamed_addr #6 align 2 {
  %7 = load i32, ptr %5, align 4, !tbaa !76
  %8 = icmp slt i32 %7, 1
  br i1 %8, label %9, label %.loopexit

9:                                                ; preds = %6
  %10 = lshr i32 %3, 24
  %11 = load ptr, ptr %0, align 8, !tbaa !33
  %12 = getelementptr inbounds nuw i8, ptr %11, i64 24
  %13 = load ptr, ptr %12, align 8
  %14 = tail call noundef signext i8 %13(ptr noundef nonnull align 8 dereferenceable(640) %0, i32 noundef %10)
  %15 = tail call noundef signext i8 @_ZN6icu_7720CollationDataBuilder20maybeSetPrimaryRangeEiijiR10UErrorCode(ptr noundef nonnull align 8 dereferenceable(640) %0, i32 noundef %1, i32 noundef %2, i32 noundef %3, i32 noundef %4, ptr noundef nonnull align 4 dereferenceable(4) %5)
  %.not25 = icmp eq i8 %15, 0
  br i1 %.not25, label %.preheader, label %17

.preheader:                                       ; preds = %9
  %16 = getelementptr inbounds nuw i8, ptr %0, i64 32
  %smax = tail call i32 @llvm.smax.i32(i32 %2, i32 %1)
  br label %21

17:                                               ; preds = %9
  %reass.sub = sub i32 %2, %1
  %18 = add i32 %reass.sub, 1
  %19 = mul nsw i32 %4, %18
  %20 = tail call noundef i32 @_ZN6icu_779Collation27incThreeBytePrimaryByOffsetEjai(i32 noundef %3, i8 noundef signext %14, i32 noundef %19)
  br label %.loopexit

21:                                               ; preds = %.preheader, %21
  %.024 = phi i32 [ %25, %21 ], [ %3, %.preheader ]
  %.023 = phi i32 [ %24, %21 ], [ %1, %.preheader ]
  %22 = load ptr, ptr %16, align 8, !tbaa !80
  %23 = or i32 %.024, 193
  tail call void @utrie2_set32_77(ptr noundef %22, i32 noundef %.023, i32 noundef %23, ptr noundef nonnull %5)
  %24 = add i32 %.023, 1
  %25 = tail call noundef i32 @_ZN6icu_779Collation27incThreeBytePrimaryByOffsetEjai(i32 noundef %.024, i8 noundef signext %14, i32 noundef %4)
  %exitcond.not = icmp eq i32 %.023, %smax
  br i1 %exitcond.not, label %.loopexit, label %21, !llvm.loop !127

.loopexit:                                        ; preds = %21, %17, %6
  %.0 = phi i32 [ 0, %6 ], [ %20, %17 ], [ %25, %21 ]
  ret i32 %.0
}